target datalayout = "e-m:e-p270:32:32-p271:32:32-p272:64:64-i64:64-i128:128-f80:128-n8:16:32:64-S128"
target triple = "x86_64-pc-linux-gnu"

%struct.SDL_Rect = type { i32, i32, i32, i32 }
%struct.SDL_Point = type { i32, i32 }
%struct.SDL_WindowData = type { ptr, i64, ptr, i64, i8, %struct.XShmSegmentInfo, ptr, ptr, ptr, i8, i32, i32, i32, i32, i8, i8, i8, i64, i32, i64, i8, %struct.SDL_Point, %struct.XConfigureEvent, %struct.XConfigureEvent, ptr, i64, i64, i64, i8, i64, ptr, i8, [4 x i64], %struct.SDL_Rect, i64, %struct._XSyncValue, i8, %struct.SDL_Rect, %struct.SDL_DisplayMode, i32, i32, i8, i8, i8, i8, i8, i8, i8, i8, i32, %struct.XPoint, ptr, ptr, i32, i32, i8 }
%struct.XShmSegmentInfo = type { i64, i32, ptr, i32 }
%struct.XConfigureEvent = type { i32, i64, i32, ptr, i64, i64, i32, i32, i32, i32, i32, i64, i32 }
%struct._XSyncValue = type { i32, i32 }
%struct.SDL_DisplayMode = type { i32, i32, i32, i32, float, float, i32, i32, ptr }
%struct.XPoint = type { i16, i16 }
%struct.SDL_Window = type { i32, ptr, ptr, i32, i32, i32, i32, i32, i32, i32, i32, float, float, i32, i32, i64, i64, float, i8, i8, i32, i32, %struct.SDL_Rect, %struct.SDL_Rect, %struct.SDL_Rect, i8, i8, i8, %struct.SDL_DisplayMode, %struct.SDL_DisplayMode, %struct.SDL_HDROutputProperties, float, ptr, i8, i8, i8, i8, i8, i8, i8, i8, i8, i32, i32, i32, i32, %struct.SDL_Rect, i32, i8, %struct.SDL_Rect, i32, %struct.SDL_Rect, ptr, ptr, i32, float, i32, i32, ptr, ptr, ptr, ptr, ptr, ptr, ptr, ptr, ptr }
%struct.SDL_HDROutputProperties = type { float, float }

@X11_XVaCreateNestedList = external global ptr, align 8
@.str.9 = private unnamed_addr constant [18 x i8] c"preeditAttributes\00", align 1
@X11_XFree = external global ptr, align 8
@.str.11 = private unnamed_addr constant [13 x i8] c"spotLocation\00", align 1
@X11_XSetICValues = external global ptr, align 8
@X11_Xutf8ResetIC = external global ptr, align 8

; Function Attrs: nounwind uwtable
define hidden zeroext i1 @X11_UpdateTextInputArea(ptr noundef %0, ptr noundef %1) #0 {
  %3 = alloca ptr, align 8
  %4 = alloca ptr, align 8
  %5 = alloca ptr, align 8
  %6 = alloca %struct.XPoint, align 2
  %7 = alloca ptr, align 8
  store ptr %0, ptr %3, align 8
  store ptr %1, ptr %4, align 8
  call void @llvm.lifetime.start.p0(i64 8, ptr %5) #6
  %8 = load ptr, ptr %4, align 8
  %9 = getelementptr inbounds nuw %struct.SDL_Window, ptr %8, i32 0, i32 59
  %10 = load ptr, ptr %9, align 8
  store ptr %10, ptr %5, align 8
  %11 = load ptr, ptr %5, align 8
  %12 = icmp ne ptr %11, null
  br i1 %12, label %13, label %78

13:                                               ; preds = %2
  %14 = load ptr, ptr %5, align 8
  %15 = getelementptr inbounds nuw %struct.SDL_WindowData, ptr %14, i32 0, i32 8
  %16 = load ptr, ptr %15, align 8
  %17 = icmp ne ptr %16, null
  br i1 %17, label %18, label %78

18:                                               ; preds = %13
  call void @llvm.lifetime.start.p0(i64 4, ptr %6) #6
  %19 = load ptr, ptr %4, align 8
  %20 = getelementptr inbounds nuw %struct.SDL_Window, ptr %19, i32 0, i32 49
  %21 = getelementptr inbounds nuw %struct.SDL_Rect, ptr %20, i32 0, i32 0
  %22 = load i32, ptr %21, align 4
  %23 = load ptr, ptr %4, align 8
  %24 = getelementptr inbounds nuw %struct.SDL_Window, ptr %23, i32 0, i32 50
  %25 = load i32, ptr %24, align 4
  %26 = add nsw i32 %22, %25
  %27 = trunc i32 %26 to i16
  %28 = getelementptr inbounds nuw %struct.XPoint, ptr %6, i32 0, i32 0
  store i16 %27, ptr %28, align 2
  %29 = load ptr, ptr %4, align 8
  %30 = getelementptr inbounds nuw %struct.SDL_Window, ptr %29, i32 0, i32 49
  %31 = getelementptr inbounds nuw %struct.SDL_Rect, ptr %30, i32 0, i32 1
  %32 = load i32, ptr %31, align 4
  %33 = load ptr, ptr %4, align 8
  %34 = getelementptr inbounds nuw %struct.SDL_Window, ptr %33, i32 0, i32 49
  %35 = getelementptr inbounds nuw %struct.SDL_Rect, ptr %34, i32 0, i32 3
  %36 = load i32, ptr %35, align 4
  %37 = add nsw i32 %32, %36
  %38 = trunc i32 %37 to i16
  %39 = getelementptr inbounds nuw %struct.XPoint, ptr %6, i32 0, i32 1
  store i16 %38, ptr %39, align 2
  %40 = getelementptr inbounds nuw %struct.XPoint, ptr %6, i32 0, i32 0
  %41 = load i16, ptr %40, align 2
  %42 = sext i16 %41 to i32
  %43 = load ptr, ptr %5, align 8
  %44 = getelementptr inbounds nuw %struct.SDL_WindowData, ptr %43, i32 0, i32 50
  %45 = getelementptr inbounds nuw %struct.XPoint, ptr %44, i32 0, i32 0
  %46 = load i16, ptr %45, align 4
  %47 = sext i16 %46 to i32
  %48 = icmp ne i32 %42, %47
  br i1 %48, label %59, label %49

49:                                               ; preds = %18
  %50 = getelementptr inbounds nuw %struct.XPoint, ptr %6, i32 0, i32 1
  %51 = load i16, ptr %50, align 2
  %52 = sext i16 %51 to i32
  %53 = load ptr, ptr %5, align 8
  %54 = getelementptr inbounds nuw %struct.SDL_WindowData, ptr %53, i32 0, i32 50
  %55 = getelementptr inbounds nuw %struct.XPoint, ptr %54, i32 0, i32 1
  %56 = load i16, ptr %55, align 2
  %57 = sext i16 %56 to i32
  %58 = icmp ne i32 %52, %57
  br i1 %58, label %59, label %77

59:                                               ; preds = %49, %18
  call void @llvm.lifetime.start.p0(i64 8, ptr %7) #6
  %60 = load ptr, ptr @X11_XVaCreateNestedList, align 8
  %61 = call ptr (i32, ...) %60(i32 noundef 0, ptr noundef @.str.11, ptr noundef %6, ptr noundef null)
  store ptr %61, ptr %7, align 8
  %62 = load ptr, ptr %7, align 8
  %63 = icmp ne ptr %62, null
  br i1 %63, label %64, label %74

64:                                               ; preds = %59
  %65 = load ptr, ptr @X11_XSetICValues, align 8
  %66 = load ptr, ptr %5, align 8
  %67 = getelementptr inbounds nuw %struct.SDL_WindowData, ptr %66, i32 0, i32 8
  %68 = load ptr, ptr %67, align 8
  %69 = load ptr, ptr %7, align 8
  %70 = call ptr (ptr, ...) %65(ptr noundef %68, ptr noundef @.str.9, ptr noundef %69, ptr noundef null)
  %71 = load ptr, ptr @X11_XFree, align 8
  %72 = load ptr, ptr %7, align 8
  %73 = call i32 %71(ptr noundef %72)
  br label %74

74:                                               ; preds = %64, %59
  %75 = load ptr, ptr %5, align 8
  %76 = getelementptr inbounds nuw %struct.SDL_WindowData, ptr %75, i32 0, i32 50
  call void @llvm.memcpy.p0.p0.i64(ptr align 4 %76, ptr align 2 %6, i64 4, i1 false)
  call void @llvm.lifetime.end.p0(i64 8, ptr %7) #6
  br label %77

77:                                               ; preds = %74, %49
  call void @llvm.lifetime.end.p0(i64 4, ptr %6) #6
  br label %78

78:                                               ; preds = %77, %13, %2
  call void @llvm.lifetime.end.p0(i64 8, ptr %5) #6
  ret i1 true
}

; Function Attrs: nounwind uwtable
define internal void @X11_ResetXIM(ptr noundef %0, ptr noundef %1) #0 {
  %3 = alloca ptr, align 8
  %4 = alloca ptr, align 8
  %5 = alloca ptr, align 8
  %6 = alloca ptr, align 8
  store ptr %0, ptr %3, align 8
  store ptr %1, ptr %4, align 8
  call void @llvm.lifetime.start.p0(i64 8, ptr %5) #6
  %7 = load ptr, ptr %4, align 8
  %8 = getelementptr inbounds nuw %struct.SDL_Window, ptr %7, i32 0, i32 59
  %9 = load ptr, ptr %8, align 8
  store ptr %9, ptr %5, align 8
  %10 = load ptr, ptr %5, align 8
  %11 = icmp ne ptr %10, null
  br i1 %11, label %12, label %30

12:                                               ; preds = %2
  %13 = load ptr, ptr %5, align 8
  %14 = getelementptr inbounds nuw %struct.SDL_WindowData, ptr %13, i32 0, i32 8
  %15 = load ptr, ptr %14, align 8
  %16 = icmp ne ptr %15, null
  br i1 %16, label %17, label %30

17:                                               ; preds = %12
  call void @llvm.lifetime.start.p0(i64 8, ptr %6) #6
  %18 = load ptr, ptr @X11_Xutf8ResetIC, align 8
  %19 = load ptr, ptr %5, align 8
  %20 = getelementptr inbounds nuw %struct.SDL_WindowData, ptr %19, i32 0, i32 8
  %21 = load ptr, ptr %20, align 8
  %22 = call ptr %18(ptr noundef %21)
  store ptr %22, ptr %6, align 8
  %23 = load ptr, ptr %6, align 8
  %24 = icmp ne ptr %23, null
  br i1 %24, label %25, label %29

25:                                               ; preds = %17
  %26 = load ptr, ptr @X11_XFree, align 8
  %27 = load ptr, ptr %6, align 8
  %28 = call i32 %26(ptr noundef %27)
  br label %29

29:                                               ; preds = %25, %17
  call void @llvm.lifetime.end.p0(i64 8, ptr %6) #6
  br label %30

30:                                               ; preds = %29, %12, %2
  call void @llvm.lifetime.end.p0(i64 8, ptr %5) #6
  ret void
}

; Function Attrs: nounwind uwtable
define hidden zeroext i1 @X11_StartTextInput(ptr noundef %0, ptr noundef %1, i32 noundef %2) #0 {
  %4 = alloca ptr, align 8
  %5 = alloca ptr, align 8
  %6 = alloca i32, align 4
  store ptr %0, ptr %4, align 8
  store ptr %1, ptr %5, align 8
  store i32 %2, ptr %6, align 4
  %7 = load ptr, ptr %4, align 8
  %8 = load ptr, ptr %5, align 8
  call void @X11_ResetXIM(ptr noundef %7, ptr noundef %8)
  %9 = load ptr, ptr %4, align 8
  %10 = load ptr, ptr %5, align 8
  %11 = call zeroext i1 @X11_UpdateTextInputArea(ptr noundef %9, ptr noundef %10)
  ret i1 %11
}