; Function Attrs: nounwind uwtable
define hidden noundef zeroext i1 @X11_StartTextInput(ptr noundef readnone captures(none) %0, ptr noundef readonly captures(none) %1, i32 noundef %2) local_unnamed_addr #0 {
  %4 = alloca %struct.XPoint, align 4
  %5 = getelementptr i8, ptr %1, i64 392
  %.val = load ptr, ptr %5, align 8
  %.not.i = icmp eq ptr %.val, null
  br i1 %.not.i, label %X11_UpdateTextInputArea.exit, label %6

6:                                                ; preds = %3
  %7 = getelementptr inbounds nuw i8, ptr %.val, i64 88
  %8 = load ptr, ptr %7, align 8
  %.not8.i = icmp eq ptr %8, null
  br i1 %.not8.i, label %X11_ResetXIM.exit, label %9

9:                                                ; preds = %6
  %10 = load ptr, ptr @X11_Xutf8ResetIC, align 8
  %11 = tail call ptr %10(ptr noundef nonnull %8) #9
  %.not9.i = icmp eq ptr %11, null
  br i1 %.not9.i, label %X11_ResetXIM.exit, label %12

12:                                               ; preds = %9
  %13 = load ptr, ptr @X11_XFree, align 8
  %14 = tail call i32 %13(ptr noundef nonnull %11) #9
  br label %X11_ResetXIM.exit

X11_ResetXIM.exit:                                ; preds = %6, %9, %12
  %.pr = load ptr, ptr %5, align 8
  %.not.i4 = icmp eq ptr %.pr, null
  br i1 %.not.i4, label %X11_UpdateTextInputArea.exit, label %15

15:                                               ; preds = %X11_ResetXIM.exit
  %16 = getelementptr inbounds nuw i8, ptr %.pr, i64 88
  %17 = load ptr, ptr %16, align 8
  %.not15.i = icmp eq ptr %17, null
  br i1 %.not15.i, label %X11_UpdateTextInputArea.exit, label %18

18:                                               ; preds = %15
  call void @llvm.lifetime.start.p0(i64 4, ptr nonnull %4) #9
  %19 = getelementptr inbounds nuw i8, ptr %1, i64 316
  %20 = load i32, ptr %19, align 4
  %21 = getelementptr inbounds nuw i8, ptr %1, i64 332
  %22 = load i32, ptr %21, align 4
  %23 = add nsw i32 %22, %20
  %24 = trunc i32 %23 to i16
  store i16 %24, ptr %4, align 4
  %25 = getelementptr inbounds nuw i8, ptr %1, i64 320
  %26 = load i32, ptr %25, align 4
  %27 = getelementptr inbounds nuw i8, ptr %1, i64 328
  %28 = load i32, ptr %27, align 4
  %29 = add nsw i32 %28, %26
  %30 = trunc i32 %29 to i16
  %31 = getelementptr inbounds nuw i8, ptr %4, i64 2
  store i16 %30, ptr %31, align 2
  %32 = getelementptr inbounds nuw i8, ptr %.pr, i64 548
  %33 = load i16, ptr %32, align 4
  %.not16.i = icmp eq i16 %33, %24
  br i1 %.not16.i, label %34, label %39

34:                                               ; preds = %18
  %sext.i = shl i32 %29, 16
  %35 = ashr exact i32 %sext.i, 16
  %36 = getelementptr inbounds nuw i8, ptr %.pr, i64 550
  %37 = load i16, ptr %36, align 2
  %38 = sext i16 %37 to i32
  %.not17.i = icmp eq i32 %35, %38
  br i1 %.not17.i, label %50, label %39

39:                                               ; preds = %34, %18
  %40 = load ptr, ptr @X11_XVaCreateNestedList, align 8
  %41 = call ptr (i32, ...) %40(i32 noundef 0, ptr noundef nonnull @.str.11, ptr noundef nonnull %4, ptr noundef null) #9
  %.not18.i = icmp eq ptr %41, null
  br i1 %.not18.i, label %48, label %42

42:                                               ; preds = %39
  %43 = load ptr, ptr @X11_XSetICValues, align 8
  %44 = load ptr, ptr %16, align 8
  %45 = call ptr (ptr, ...) %43(ptr noundef %44, ptr noundef nonnull @.str.9, ptr noundef nonnull %41, ptr noundef null) #9
  %46 = load ptr, ptr @X11_XFree, align 8
  %47 = call i32 %46(ptr noundef nonnull %41) #9
  br label %48

48:                                               ; preds = %42, %39
  %49 = load i32, ptr %4, align 4
  store i32 %49, ptr %32, align 4
  br label %50

50:                                               ; preds = %48, %34
  call void @llvm.lifetime.end.p0(i64 4, ptr nonnull %4) #9
  br label %X11_UpdateTextInputArea.exit

X11_UpdateTextInputArea.exit:                     ; preds = %3, %X11_ResetXIM.exit, %15, %50
  ret i1 true
}